target datalayout = "e-m:e-p270:32:32-p271:32:32-p272:64:64-i64:64-i128:128-f80:128-n8:16:32:64-S128"
target triple = "x86_64-pc-linux-gnu"

%struct.AVFormatContext = type { ptr, ptr, ptr, ptr, ptr, i32, i32, ptr, i32, ptr, i32, ptr, ptr, i64, i64, i64, i32, i32, i32, i64, i64, ptr, i32, i32, ptr, i32, i32, i32, i32, ptr, i64, i32, i32, %struct.AVIOInterruptCB, i32, i32, i32, i32, i64, i32, i32, i32, i32, i32, i32, i32, i32, i32, i32, i32, i32, i64, i32, i32, i32, i32, i32, ptr, ptr, ptr, ptr, i32, ptr, ptr, ptr, ptr, i32, ptr, ptr, i64, ptr, ptr, ptr, i64 }
%struct.AVIOInterruptCB = type { ptr, ptr }
%struct.AVStream = type { ptr, i32, i32, ptr, ptr, %struct.AVRational, i64, i64, i64, i32, i32, %struct.AVRational, ptr, %struct.AVRational, %struct.AVPacket, i32, %struct.AVRational, i32 }
%struct.AVPacket = type { ptr, i64, i64, ptr, i32, i32, i32, ptr, i32, i64, i64, ptr, ptr, %struct.AVRational }
%struct.AVRational = type { i32, i32 }
%struct.AVCodecParameters = type { i32, i32, i32, ptr, i32, ptr, i32, i32, i64, i32, i32, i32, i32, i32, i32, %struct.AVRational, %struct.AVRational, i32, i32, i32, i32, i32, i32, i32, %struct.AVChannelLayout, i32, i32, i32, i32, i32, i32 }
%struct.AVChannelLayout = type { i32, i32, %union.anon, ptr }
%union.anon = type { i64 }
%struct.MCADemuxContext = type { i32, i16, i32, i32, i32 }

; Function Attrs: nounwind uwtable
define internal i32 @read_seek(ptr noundef %0, i32 noundef %1, i64 noundef %2, i32 noundef %3) #0 {
  %5 = alloca i32, align 4
  %6 = alloca ptr, align 8
  %7 = alloca i32, align 4
  %8 = alloca i64, align 8
  %9 = alloca i32, align 4
  %10 = alloca ptr, align 8
  %11 = alloca ptr, align 8
  %12 = alloca i64, align 8
  %13 = alloca i32, align 4
  store ptr %0, ptr %6, align 8, !tbaa !14
  store i32 %1, ptr %7, align 4, !tbaa !37
  store i64 %2, ptr %8, align 8, !tbaa !34
  store i32 %3, ptr %9, align 4, !tbaa !37
  call void @llvm.lifetime.start.p0(i64 8, ptr %10) #4
  %14 = load ptr, ptr %6, align 8, !tbaa !14
  %15 = getelementptr inbounds nuw %struct.AVFormatContext, ptr %14, i32 0, i32 7
  %16 = load ptr, ptr %15, align 8, !tbaa !66
  %17 = load i32, ptr %7, align 4, !tbaa !37
  %18 = sext i32 %17 to i64
  %19 = getelementptr inbounds ptr, ptr %16, i64 %18
  %20 = load ptr, ptr %19, align 8, !tbaa !38
  store ptr %20, ptr %10, align 8, !tbaa !38
  call void @llvm.lifetime.start.p0(i64 8, ptr %11) #4
  %21 = load ptr, ptr %6, align 8, !tbaa !14
  %22 = getelementptr inbounds nuw %struct.AVFormatContext, ptr %21, i32 0, i32 3
  %23 = load ptr, ptr %22, align 8, !tbaa !16
  store ptr %23, ptr %11, align 8, !tbaa !31
  call void @llvm.lifetime.start.p0(i64 8, ptr %12) #4
  store i64 0, ptr %12, align 8, !tbaa !34
  %24 = load i64, ptr %8, align 8, !tbaa !34
  %25 = icmp slt i64 %24, 0
  br i1 %25, label %26, label %27

26:                                               ; preds = %4
  store i64 0, ptr %8, align 8, !tbaa !34
  br label %27

27:                                               ; preds = %26, %4
  %28 = load ptr, ptr %11, align 8, !tbaa !31
  %29 = getelementptr inbounds nuw %struct.MCADemuxContext, ptr %28, i32 0, i32 4
  %30 = load i32, ptr %29, align 4, !tbaa !55
  %31 = zext i32 %30 to i64
  %32 = load i64, ptr %8, align 8, !tbaa !34
  %33 = sdiv i64 %32, %31
  store i64 %33, ptr %8, align 8, !tbaa !34
  %34 = load i64, ptr %8, align 8, !tbaa !34
  %35 = load ptr, ptr %11, align 8, !tbaa !31
  %36 = getelementptr inbounds nuw %struct.MCADemuxContext, ptr %35, i32 0, i32 0
  %37 = load i32, ptr %36, align 4, !tbaa !56
  %38 = zext i32 %37 to i64
  %39 = icmp sge i64 %34, %38
  br i1 %39, label %40, label %46

40:                                               ; preds = %27
  %41 = load ptr, ptr %11, align 8, !tbaa !31
  %42 = getelementptr inbounds nuw %struct.MCADemuxContext, ptr %41, i32 0, i32 0
  %43 = load i32, ptr %42, align 4, !tbaa !56
  %44 = sub i32 %43, 1
  %45 = zext i32 %44 to i64
  store i64 %45, ptr %8, align 8, !tbaa !34
  br label %46

46:                                               ; preds = %40, %27
  %47 = load ptr, ptr %6, align 8, !tbaa !14
  %48 = getelementptr inbounds nuw %struct.AVFormatContext, ptr %47, i32 0, i32 4
  %49 = load ptr, ptr %48, align 8, !tbaa !33
  %50 = load ptr, ptr %11, align 8, !tbaa !31
  %51 = getelementptr inbounds nuw %struct.MCADemuxContext, ptr %50, i32 0, i32 3
  %52 = load i32, ptr %51, align 4, !tbaa !58
  %53 = zext i32 %52 to i64
  %54 = load i64, ptr %8, align 8, !tbaa !34
  %55 = load ptr, ptr %11, align 8, !tbaa !31
  %56 = getelementptr inbounds nuw %struct.MCADemuxContext, ptr %55, i32 0, i32 1
  %57 = load i16, ptr %56, align 4, !tbaa !52
  %58 = zext i16 %57 to i64
  %59 = mul nsw i64 %54, %58
  %60 = load ptr, ptr %10, align 8, !tbaa !38
  %61 = getelementptr inbounds nuw %struct.AVStream, ptr %60, i32 0, i32 3
  %62 = load ptr, ptr %61, align 8, !tbaa !40
  %63 = getelementptr inbounds nuw %struct.AVCodecParameters, ptr %62, i32 0, i32 24
  %64 = getelementptr inbounds nuw %struct.AVChannelLayout, ptr %63, i32 0, i32 1
  %65 = load i32, ptr %64, align 4, !tbaa !51
  %66 = sext i32 %65 to i64
  %67 = mul nsw i64 %59, %66
  %68 = add nsw i64 %53, %67
  %69 = call i64 @avio_seek(ptr noundef %49, i64 noundef %68, i32 noundef 0)
  store i64 %69, ptr %12, align 8, !tbaa !34
  %70 = load i64, ptr %12, align 8, !tbaa !34
  %71 = icmp slt i64 %70, 0
  br i1 %71, label %72, label %75

72:                                               ; preds = %46
  %73 = load i64, ptr %12, align 8, !tbaa !34
  %74 = trunc i64 %73 to i32
  store i32 %74, ptr %5, align 4
  store i32 1, ptr %13, align 4
  br label %88

75:                                               ; preds = %46
  %76 = load i64, ptr %8, align 8, !tbaa !34
  %77 = trunc i64 %76 to i32
  %78 = load ptr, ptr %11, align 8, !tbaa !31
  %79 = getelementptr inbounds nuw %struct.MCADemuxContext, ptr %78, i32 0, i32 2
  store i32 %77, ptr %79, align 4, !tbaa !67
  %80 = load ptr, ptr %6, align 8, !tbaa !14
  %81 = load ptr, ptr %10, align 8, !tbaa !38
  %82 = load i64, ptr %8, align 8, !tbaa !34
  %83 = load ptr, ptr %11, align 8, !tbaa !31
  %84 = getelementptr inbounds nuw %struct.MCADemuxContext, ptr %83, i32 0, i32 4
  %85 = load i32, ptr %84, align 4, !tbaa !55
  %86 = zext i32 %85 to i64
  %87 = mul nsw i64 %82, %86
  call void @avpriv_update_cur_dts(ptr noundef %80, ptr noundef %81, i64 noundef %87)
  store i32 0, ptr %5, align 4
  store i32 1, ptr %13, align 4
  br label %88

88:                                               ; preds = %75, %72
  call void @llvm.lifetime.end.p0(i64 8, ptr %12) #4
  call void @llvm.lifetime.end.p0(i64 8, ptr %11) #4
  call void @llvm.lifetime.end.p0(i64 8, ptr %10) #4
  %89 = load i32, ptr %5, align 4
  ret i32 %89
}