; Function Attrs: nounwind uwtable
define internal i32 @read_seek(ptr noundef %0, i32 noundef %1, i64 noundef %2, i32 %3) #1 {
  %5 = getelementptr inbounds nuw i8, ptr %0, i64 48
  %6 = load ptr, ptr %5, align 8, !tbaa !52
  %7 = sext i32 %1 to i64
  %8 = getelementptr inbounds ptr, ptr %6, i64 %7
  %9 = load ptr, ptr %8, align 8, !tbaa !53
  %10 = getelementptr inbounds nuw i8, ptr %0, i64 24
  %11 = load ptr, ptr %10, align 8, !tbaa !12
  %spec.store.select = tail call i64 @llvm.smax.i64(i64 %2, i64 0)
  %12 = getelementptr inbounds nuw i8, ptr %11, i64 16
  %13 = load i32, ptr %12, align 4, !tbaa !43
  %14 = zext i32 %13 to i64
  %15 = udiv i64 %spec.store.select, %14
  %16 = load i32, ptr %11, align 4, !tbaa !44
  %17 = zext i32 %16 to i64
  %.not = icmp samesign ult i64 %15, %17
  %18 = add i32 %16, -1
  %19 = zext i32 %18 to i64
  %.022 = select i1 %.not, i64 %15, i64 %19
  %20 = getelementptr inbounds nuw i8, ptr %0, i64 32
  %21 = load ptr, ptr %20, align 8, !tbaa !27
  %22 = getelementptr inbounds nuw i8, ptr %11, i64 12
  %23 = load i32, ptr %22, align 4, !tbaa !46
  %24 = zext i32 %23 to i64
  %25 = getelementptr inbounds nuw i8, ptr %11, i64 4
  %26 = load i16, ptr %25, align 4, !tbaa !39
  %27 = zext i16 %26 to i64
  %28 = mul nuw nsw i64 %.022, %27
  %29 = getelementptr inbounds nuw i8, ptr %9, i64 16
  %30 = load ptr, ptr %29, align 8, !tbaa !28
  %31 = getelementptr inbounds nuw i8, ptr %30, i64 132
  %32 = load i32, ptr %31, align 4, !tbaa !38
  %33 = sext i32 %32 to i64
  %34 = mul nsw i64 %28, %33
  %35 = add nsw i64 %34, %24
  %36 = tail call i64 @avio_seek(ptr noundef %21, i64 noundef %35, i32 noundef 0) #5
  %37 = icmp slt i64 %36, 0
  br i1 %37, label %38, label %40

38:                                               ; preds = %4
  %39 = trunc i64 %36 to i32
  br label %46

40:                                               ; preds = %4
  %41 = trunc i64 %.022 to i32
  %42 = getelementptr inbounds nuw i8, ptr %11, i64 8
  store i32 %41, ptr %42, align 4, !tbaa !55
  %43 = load i32, ptr %12, align 4, !tbaa !43
  %44 = zext i32 %43 to i64
  %45 = mul nuw nsw i64 %.022, %44
  tail call void @avpriv_update_cur_dts(ptr noundef nonnull %0, ptr noundef nonnull %9, i64 noundef %45) #5
  br label %46

46:                                               ; preds = %40, %38
  %.0 = phi i32 [ %39, %38 ], [ 0, %40 ]
  ret i32 %.0
}